target datalayout = "e-m:e-p270:32:32-p271:32:32-p272:64:64-i64:64-i128:128-f80:128-n8:16:32:64-S128"
target triple = "x86_64-pc-linux-gnu"

%struct.WebPIDecoder = type { i32, %struct.WebPDecParams, i32, ptr, %struct.VP8Io, %struct.MemBuffer, %struct.WebPDecBuffer, ptr, i64, i32 }
%struct.WebPDecParams = type { ptr, ptr, ptr, ptr, i32, ptr, ptr, ptr, ptr, ptr, ptr, ptr, ptr, ptr }
%struct.VP8Io = type { i32, i32, i32, i32, i32, ptr, ptr, ptr, i32, i32, ptr, ptr, ptr, ptr, i32, i64, ptr, i32, i32, i32, i32, i32, i32, i32, i32, i32, ptr }
%struct.MemBuffer = type { i32, i64, i64, i64, ptr, i64, ptr }
%struct.WebPDecBuffer = type { i32, i32, i32, i32, %union.anon, [4 x i32], ptr }
%union.anon = type { %struct.WebPYUVABuffer }
%struct.WebPYUVABuffer = type { ptr, ptr, ptr, ptr, i32, i32, i32, i32, i64, i64, i64, i64 }
%struct.WebPRGBABuffer = type { ptr, i32, i64 }

; Function Attrs: nounwind uwtable
define internal ptr @GetOutputBuffer(ptr noundef %0) #0 {
  %2 = alloca ptr, align 8
  %3 = alloca ptr, align 8
  store ptr %0, ptr %3, align 8, !tbaa !10
  %4 = load ptr, ptr %3, align 8, !tbaa !10
  %5 = icmp eq ptr %4, null
  br i1 %5, label %11, label %6

6:                                                ; preds = %1
  %7 = load ptr, ptr %3, align 8, !tbaa !10
  %8 = getelementptr inbounds nuw %struct.WebPIDecoder, ptr %7, i32 0, i32 3
  %9 = load ptr, ptr %8, align 8, !tbaa !33
  %10 = icmp eq ptr %9, null
  br i1 %10, label %11, label %12

11:                                               ; preds = %6, %1
  store ptr null, ptr %2, align 8
  br label %29

12:                                               ; preds = %6
  %13 = load ptr, ptr %3, align 8, !tbaa !10
  %14 = getelementptr inbounds nuw %struct.WebPIDecoder, ptr %13, i32 0, i32 0
  %15 = load i32, ptr %14, align 8, !tbaa !12
  %16 = icmp ule i32 %15, 2
  br i1 %16, label %17, label %18

17:                                               ; preds = %12
  store ptr null, ptr %2, align 8
  br label %29

18:                                               ; preds = %12
  %19 = load ptr, ptr %3, align 8, !tbaa !10
  %20 = getelementptr inbounds nuw %struct.WebPIDecoder, ptr %19, i32 0, i32 7
  %21 = load ptr, ptr %20, align 8, !tbaa !26
  %22 = icmp ne ptr %21, null
  br i1 %22, label %23, label %24

23:                                               ; preds = %18
  store ptr null, ptr %2, align 8
  br label %29

24:                                               ; preds = %18
  %25 = load ptr, ptr %3, align 8, !tbaa !10
  %26 = getelementptr inbounds nuw %struct.WebPIDecoder, ptr %25, i32 0, i32 1
  %27 = getelementptr inbounds nuw %struct.WebPDecParams, ptr %26, i32 0, i32 0
  %28 = load ptr, ptr %27, align 8, !tbaa !25
  store ptr %28, ptr %2, align 8
  br label %29

29:                                               ; preds = %24, %23, %17, %11
  %30 = load ptr, ptr %2, align 8
  ret ptr %30
}

; Function Attrs: nounwind uwtable
define ptr @WebPIDecGetRGB(ptr noundef %0, ptr noundef %1, ptr noundef %2, ptr noundef %3, ptr noundef %4) #0 {
  %6 = alloca ptr, align 8
  %7 = alloca ptr, align 8
  %8 = alloca ptr, align 8
  %9 = alloca ptr, align 8
  %10 = alloca ptr, align 8
  %11 = alloca ptr, align 8
  %12 = alloca ptr, align 8
  %13 = alloca i32, align 4
  store ptr %0, ptr %7, align 8, !tbaa !10
  store ptr %1, ptr %8, align 8, !tbaa !61
  store ptr %2, ptr %9, align 8, !tbaa !61
  store ptr %3, ptr %10, align 8, !tbaa !61
  store ptr %4, ptr %11, align 8, !tbaa !61
  call void @llvm.lifetime.start.p0(i64 8, ptr %12) #6
  %14 = load ptr, ptr %7, align 8, !tbaa !10
  %15 = call ptr @GetOutputBuffer(ptr noundef %14)
  store ptr %15, ptr %12, align 8, !tbaa !3
  %16 = load ptr, ptr %12, align 8, !tbaa !3
  %17 = icmp eq ptr %16, null
  br i1 %17, label %18, label %19

18:                                               ; preds = %5
  store ptr null, ptr %6, align 8
  store i32 1, ptr %13, align 4
  br label %64

19:                                               ; preds = %5
  %20 = load ptr, ptr %12, align 8, !tbaa !3
  %21 = getelementptr inbounds nuw %struct.WebPDecBuffer, ptr %20, i32 0, i32 0
  %22 = load i32, ptr %21, align 8, !tbaa !27
  %23 = icmp uge i32 %22, 11
  br i1 %23, label %24, label %25

24:                                               ; preds = %19
  store ptr null, ptr %6, align 8
  store i32 1, ptr %13, align 4
  br label %64

25:                                               ; preds = %19
  %26 = load ptr, ptr %8, align 8, !tbaa !61
  %27 = icmp ne ptr %26, null
  br i1 %27, label %28, label %34

28:                                               ; preds = %25
  %29 = load ptr, ptr %7, align 8, !tbaa !10
  %30 = getelementptr inbounds nuw %struct.WebPIDecoder, ptr %29, i32 0, i32 1
  %31 = getelementptr inbounds nuw %struct.WebPDecParams, ptr %30, i32 0, i32 4
  %32 = load i32, ptr %31, align 8, !tbaa !64
  %33 = load ptr, ptr %8, align 8, !tbaa !61
  store i32 %32, ptr %33, align 4, !tbaa !39
  br label %34

34:                                               ; preds = %28, %25
  %35 = load ptr, ptr %9, align 8, !tbaa !61
  %36 = icmp ne ptr %35, null
  br i1 %36, label %37, label %42

37:                                               ; preds = %34
  %38 = load ptr, ptr %12, align 8, !tbaa !3
  %39 = getelementptr inbounds nuw %struct.WebPDecBuffer, ptr %38, i32 0, i32 1
  %40 = load i32, ptr %39, align 4, !tbaa !63
  %41 = load ptr, ptr %9, align 8, !tbaa !61
  store i32 %40, ptr %41, align 4, !tbaa !39
  br label %42

42:                                               ; preds = %37, %34
  %43 = load ptr, ptr %10, align 8, !tbaa !61
  %44 = icmp ne ptr %43, null
  br i1 %44, label %45, label %50

45:                                               ; preds = %42
  %46 = load ptr, ptr %12, align 8, !tbaa !3
  %47 = getelementptr inbounds nuw %struct.WebPDecBuffer, ptr %46, i32 0, i32 2
  %48 = load i32, ptr %47, align 8, !tbaa !65
  %49 = load ptr, ptr %10, align 8, !tbaa !61
  store i32 %48, ptr %49, align 4, !tbaa !39
  br label %50

50:                                               ; preds = %45, %42
  %51 = load ptr, ptr %11, align 8, !tbaa !61
  %52 = icmp ne ptr %51, null
  br i1 %52, label %53, label %59

53:                                               ; preds = %50
  %54 = load ptr, ptr %12, align 8, !tbaa !3
  %55 = getelementptr inbounds nuw %struct.WebPDecBuffer, ptr %54, i32 0, i32 4
  %56 = getelementptr inbounds nuw %struct.WebPRGBABuffer, ptr %55, i32 0, i32 1
  %57 = load i32, ptr %56, align 8, !tbaa !42
  %58 = load ptr, ptr %11, align 8, !tbaa !61
  store i32 %57, ptr %58, align 4, !tbaa !39
  br label %59

59:                                               ; preds = %53, %50
  %60 = load ptr, ptr %12, align 8, !tbaa !3
  %61 = getelementptr inbounds nuw %struct.WebPDecBuffer, ptr %60, i32 0, i32 4
  %62 = getelementptr inbounds nuw %struct.WebPRGBABuffer, ptr %61, i32 0, i32 0
  %63 = load ptr, ptr %62, align 8, !tbaa !42
  store ptr %63, ptr %6, align 8
  store i32 1, ptr %13, align 4
  br label %64

64:                                               ; preds = %59, %24, %18
  call void @llvm.lifetime.end.p0(i64 8, ptr %12) #6
  %65 = load ptr, ptr %6, align 8
  ret ptr %65
}