; Function Attrs: mustprogress nofree norecurse nosync nounwind willreturn memory(read, argmem: readwrite, inaccessiblemem: none) uwtable
define ptr @WebPIDecGetRGB(ptr noundef readonly captures(address_is_null) %0, ptr noundef writeonly captures(address_is_null) %1, ptr noundef writeonly captures(address_is_null) %2, ptr noundef writeonly captures(address_is_null) %3, ptr noundef writeonly captures(address_is_null) %4) local_unnamed_addr #4 {
  %6 = icmp eq ptr %0, null
  br i1 %6, label %GetOutputBuffer.exit.thread, label %7

7:                                                ; preds = %5
  %8 = getelementptr inbounds nuw i8, ptr %0, i64 128
  %9 = load ptr, ptr %8, align 8, !tbaa !25
  %10 = icmp eq ptr %9, null
  br i1 %10, label %GetOutputBuffer.exit.thread, label %11

11:                                               ; preds = %7
  %12 = load i32, ptr %0, align 8, !tbaa !3
  %13 = icmp ult i32 %12, 3
  br i1 %13, label %GetOutputBuffer.exit.thread, label %14

14:                                               ; preds = %11
  %15 = getelementptr inbounds nuw i8, ptr %0, i64 472
  %16 = load ptr, ptr %15, align 8, !tbaa !22
  %.not.i = icmp eq ptr %16, null
  br i1 %.not.i, label %GetOutputBuffer.exit, label %GetOutputBuffer.exit.thread

GetOutputBuffer.exit:                             ; preds = %14
  %17 = getelementptr inbounds nuw i8, ptr %0, i64 8
  %18 = load ptr, ptr %17, align 8, !tbaa !21
  %19 = icmp eq ptr %18, null
  br i1 %19, label %GetOutputBuffer.exit.thread, label %20

20:                                               ; preds = %GetOutputBuffer.exit
  %21 = load i32, ptr %18, align 8, !tbaa !23
  %22 = icmp ugt i32 %21, 10
  br i1 %22, label %GetOutputBuffer.exit.thread, label %23

23:                                               ; preds = %20
  %.not = icmp eq ptr %1, null
  br i1 %.not, label %27, label %24

24:                                               ; preds = %23
  %25 = getelementptr inbounds nuw i8, ptr %0, i64 40
  %26 = load i32, ptr %25, align 8, !tbaa !105
  store i32 %26, ptr %1, align 4, !tbaa !82
  br label %27

27:                                               ; preds = %24, %23
  %.not22 = icmp eq ptr %2, null
  br i1 %.not22, label %31, label %28

28:                                               ; preds = %27
  %29 = getelementptr inbounds nuw i8, ptr %18, i64 4
  %30 = load i32, ptr %29, align 4, !tbaa !104
  store i32 %30, ptr %2, align 4, !tbaa !82
  br label %31

31:                                               ; preds = %28, %27
  %.not23 = icmp eq ptr %3, null
  br i1 %.not23, label %35, label %32

32:                                               ; preds = %31
  %33 = getelementptr inbounds nuw i8, ptr %18, i64 8
  %34 = load i32, ptr %33, align 8, !tbaa !106
  store i32 %34, ptr %3, align 4, !tbaa !82
  br label %35

35:                                               ; preds = %32, %31
  %.not24 = icmp eq ptr %4, null
  br i1 %.not24, label %39, label %36

36:                                               ; preds = %35
  %37 = getelementptr inbounds nuw i8, ptr %18, i64 24
  %38 = load i32, ptr %37, align 8, !tbaa !31
  store i32 %38, ptr %4, align 4, !tbaa !82
  br label %39

39:                                               ; preds = %36, %35
  %40 = getelementptr inbounds nuw i8, ptr %18, i64 16
  %41 = load ptr, ptr %40, align 8, !tbaa !31
  br label %GetOutputBuffer.exit.thread

GetOutputBuffer.exit.thread:                      ; preds = %14, %11, %5, %7, %20, %GetOutputBuffer.exit, %39
  %.0 = phi ptr [ %41, %39 ], [ null, %GetOutputBuffer.exit ], [ null, %20 ], [ null, %7 ], [ null, %5 ], [ null, %11 ], [ null, %14 ]
  ret ptr %.0
}